	.file	"ilv_m2.cpp"
	.text
.Ltext0:
	.type	_ZL4initiPPc, @function
_ZL4initiPPc:
.LFB0:
	.file 1 "ilv_m2.cpp"
	.loc 1 120 1
	.cfi_startproc
	.cfi_personality 0x3,__gxx_personality_v0
	.cfi_lsda 0x3,.LLSDA0
	pushq	%rbp
	.cfi_def_cfa_offset 16
	.cfi_offset 6, -16
	movq	%rsp, %rbp
	.cfi_def_cfa_register 6
	pushq	%rbx
	subq	$24, %rsp
	.cfi_offset 3, -24
	movl	%edi, -20(%rbp)
	movq	%rsi, -32(%rbp)
	.loc 1 122 25
	movq	-32(%rbp), %rdx
	movl	-20(%rbp), %eax
	movq	%rdx, %rsi
	movl	%eax, %edi
.LEHB0:
	call	_M2_Storage_init
	.loc 1 123 24
	movq	-32(%rbp), %rdx
	movl	-20(%rbp), %eax
	movq	%rdx, %rsi
	movl	%eax, %edi
	call	_M2_SYSTEM_init
	.loc 1 124 23
	movq	-32(%rbp), %rdx
	movl	-20(%rbp), %eax
	movq	%rdx, %rsi
	movl	%eax, %edi
	call	_M2_M2RTS_init
	.loc 1 125 30
	movq	-32(%rbp), %rdx
	movl	-20(%rbp), %eax
	movq	%rdx, %rsi
	movl	%eax, %edi
	call	_M2_RTExceptions_init
	.loc 1 126 26
	movq	-32(%rbp), %rdx
	movl	-20(%rbp), %eax
	movq	%rdx, %rsi
	movl	%eax, %edi
	call	_M2_Indexing_init
	.loc 1 127 26
	movq	-32(%rbp), %rdx
	movl	-20(%rbp), %eax
	movq	%rdx, %rsi
	movl	%eax, %edi
	call	_M2_NumberIO_init
	.loc 1 128 24
	movq	-32(%rbp), %rdx
	movl	-20(%rbp), %eax
	movq	%rdx, %rsi
	movl	%eax, %edi
	call	_M2_StrLib_init
	.loc 1 129 21
	movq	-32(%rbp), %rdx
	movl	-20(%rbp), %eax
	movq	%rdx, %rsi
	movl	%eax, %edi
	call	_M2_FIO_init
	.loc 1 130 23
	movq	-32(%rbp), %rdx
	movl	-20(%rbp), %eax
	movq	%rdx, %rsi
	movl	%eax, %edi
	call	_M2_errno_init
	.loc 1 131 25
	movq	-32(%rbp), %rdx
	movl	-20(%rbp), %eax
	movq	%rdx, %rsi
	movl	%eax, %edi
	call	_M2_termios_init
	.loc 1 132 20
	movq	-32(%rbp), %rdx
	movl	-20(%rbp), %eax
	movq	%rdx, %rsi
	movl	%eax, %edi
	call	_M2_IO_init
	.loc 1 133 23
	movq	-32(%rbp), %rdx
	movl	-20(%rbp), %eax
	movq	%rdx, %rsi
	movl	%eax, %edi
	call	_M2_Debug_init
	.loc 1 134 23
	movq	-32(%rbp), %rdx
	movl	-20(%rbp), %eax
	movq	%rdx, %rsi
	movl	%eax, %edi
	call	_M2_StdIO_init
	.loc 1 135 28
	movq	-32(%rbp), %rdx
	movl	-20(%rbp), %eax
	movq	%rdx, %rsi
	movl	%eax, %edi
	call	_M2_SysStorage_init
	.loc 1 136 31
	movq	-32(%rbp), %rdx
	movl	-20(%rbp), %eax
	movq	%rdx, %rsi
	movl	%eax, %edi
	call	_M2_SysExceptions_init
	.loc 1 137 29
	movq	-32(%rbp), %rdx
	movl	-20(%rbp), %eax
	movq	%rdx, %rsi
	movl	%eax, %edi
	call	_M2_M2EXCEPTION_init
	.loc 1 138 23
	movq	-32(%rbp), %rdx
	movl	-20(%rbp), %eax
	movq	%rdx, %rsi
	movl	%eax, %edi
	call	_M2_StrIO_init
	.loc 1 139 23
	movq	-32(%rbp), %rdx
	movl	-20(%rbp), %eax
	movq	%rdx, %rsi
	movl	%eax, %edi
	call	_M2_ASCII_init
	.loc 1 140 25
	movq	-32(%rbp), %rdx
	movl	-20(%rbp), %eax
	movq	%rdx, %rsi
	movl	%eax, %edi
	call	_M2_Display_init
	.loc 1 141 26
	movq	-32(%rbp), %rdx
	movl	-20(%rbp), %eax
	movq	%rdx, %rsi
	movl	%eax, %edi
	call	_M2_Keyboard_init
	.loc 1 142 27
	movq	-32(%rbp), %rdx
	movl	-20(%rbp), %eax
	movq	%rdx, %rsi
	movl	%eax, %edi
	call	_M2_ConvTypes_init
	.loc 1 143 27
	movq	-32(%rbp), %rdx
	movl	-20(%rbp), %eax
	movq	%rdx, %rsi
	movl	%eax, %edi
	call	_M2_Assertion_init
	.loc 1 144 27
	movq	-32(%rbp), %rdx
	movl	-20(%rbp), %eax
	movq	%rdx, %rsi
	movl	%eax, %edi
	call	_M2_CharClass_init
	.loc 1 145 28
	movq	-32(%rbp), %rdx
	movl	-20(%rbp), %eax
	movq	%rdx, %rsi
	movl	%eax, %edi
	call	_M2_EXCEPTIONS_init
	.loc 1 146 23
	movq	-32(%rbp), %rdx
	movl	-20(%rbp), %eax
	movq	%rdx, %rsi
	movl	%eax, %edi
	call	_M2_ldtoa_init
	.loc 1 147 22
	movq	-32(%rbp), %rdx
	movl	-20(%rbp), %eax
	movq	%rdx, %rsi
	movl	%eax, %edi
	call	_M2_dtoa_init
	.loc 1 148 27
	movq	-32(%rbp), %rdx
	movl	-20(%rbp), %eax
	movq	%rdx, %rsi
	movl	%eax, %edi
	call	_M2_WholeConv_init
	.loc 1 149 26
	movq	-32(%rbp), %rdx
	movl	-20(%rbp), %eax
	movq	%rdx, %rsi
	movl	%eax, %edi
	call	_M2_Termbase_init
	.loc 1 150 31
	movq	-32(%rbp), %rdx
	movl	-20(%rbp), %eax
	movq	%rdx, %rsi
	movl	%eax, %edi
	call	_M2_StringConvert_init
	.loc 1 151 23
	movq	-32(%rbp), %rdx
	movl	-20(%rbp), %eax
	movq	%rdx, %rsi
	movl	%eax, %edi
	call	_M2_wrapc_init
	.loc 1 152 31
	movq	-32(%rbp), %rdx
	movl	-20(%rbp), %eax
	movq	%rdx, %rsi
	movl	%eax, %edi
	call	_M2_FormatStrings_init
	.loc 1 153 32
	movq	-32(%rbp), %rdx
	movl	-20(%rbp), %eax
	movq	%rdx, %rsi
	movl	%eax, %edi
	call	_M2_DynamicStrings_init
	.loc 1 154 22
	movq	-32(%rbp), %rdx
	movl	-20(%rbp), %eax
	movq	%rdx, %rsi
	movl	%eax, %edi
	call	_M2_SFIO_init
	.loc 1 155 26
	movq	-32(%rbp), %rdx
	movl	-20(%rbp), %eax
	movq	%rdx, %rsi
	movl	%eax, %edi
	call	_M2_Terminal_init
	.loc 1 156 25
	movq	-32(%rbp), %rdx
	movl	-20(%rbp), %eax
	movq	%rdx, %rsi
	movl	%eax, %edi
	call	_M2_Strings_init
	.loc 1 157 27
	movq	-32(%rbp), %rdx
	movl	-20(%rbp), %eax
	movq	%rdx, %rsi
	movl	%eax, %edi
	call	_M2_Selective_init
	.loc 1 158 23
	movq	-32(%rbp), %rdx
	movl	-20(%rbp), %eax
	movq	%rdx, %rsi
	movl	%eax, %edi
	call	_M2_FpuIO_init
	.loc 1 159 26
	movq	-32(%rbp), %rdx
	movl	-20(%rbp), %eax
	movq	%rdx, %rsi
	movl	%eax, %edi
	call	_M2_WholeStr_init
	.loc 1 160 28
	movq	-32(%rbp), %rdx
	movl	-20(%rbp), %eax
	movq	%rdx, %rsi
	movl	%eax, %edi
	call	_M2_FileSystem_init
	.loc 1 161 23
	movq	-32(%rbp), %rdx
	movl	-20(%rbp), %eax
	movq	%rdx, %rsi
	movl	%eax, %edi
	call	_M2_Delay_init
	.loc 1 162 26
	movq	-32(%rbp), %rdx
	movl	-20(%rbp), %eax
	movq	%rdx, %rsi
	movl	%eax, %edi
	call	_M2_MathLib0_init
	.loc 1 163 26
	movq	-32(%rbp), %rdx
	movl	-20(%rbp), %eax
	movq	%rdx, %rsi
	movl	%eax, %edi
	call	_M2_PulseLib_init
	.loc 1 164 29
	movq	-32(%rbp), %rdx
	movl	-20(%rbp), %eax
	movq	%rdx, %rsi
	movl	%eax, %edi
	call	_M2_GradientLib_init
	.loc 1 165 31
	movq	-32(%rbp), %rdx
	movl	-20(%rbp), %eax
	movq	%rdx, %rsi
	movl	%eax, %edi
	call	_M2_MatrixMathLib_init
	.loc 1 166 33
	movq	-32(%rbp), %rdx
	movl	-20(%rbp), %eax
	movq	%rdx, %rsi
	movl	%eax, %edi
	call	_M2_SpinOperatorLib_init
	.loc 1 167 34
	movq	-32(%rbp), %rdx
	movl	-20(%rbp), %eax
	movq	%rdx, %rsi
	movl	%eax, %edi
	call	_M2_BinaryFilesInOut_init
	.loc 1 168 25
	movq	-32(%rbp), %rdx
	movl	-20(%rbp), %eax
	movq	%rdx, %rsi
	movl	%eax, %edi
	call	_M2_Fourier_init
	.loc 1 169 32
	movq	-32(%rbp), %rdx
	movl	-20(%rbp), %eax
	movq	%rdx, %rsi
	movl	%eax, %edi
	call	_M2_DataFilesInout_init
	.loc 1 170 27
	movq	-32(%rbp), %rdx
	movl	-20(%rbp), %eax
	movq	%rdx, %rsi
	movl	%eax, %edi
	call	_M2_RealInOut_init
	.loc 1 171 23
	movq	-32(%rbp), %rdx
	movl	-20(%rbp), %eax
	movq	%rdx, %rsi
	movl	%eax, %edi
	call	_M2_InOut_init
	.loc 1 172 26
	movq	-32(%rbp), %rdx
	movl	-20(%rbp), %eax
	movq	%rdx, %rsi
	movl	%eax, %edi
	call	_M2_TimeDate_init
	.loc 1 173 31
	movq	-32(%rbp), %rdx
	movl	-20(%rbp), %eax
	movq	%rdx, %rsi
	movl	%eax, %edi
	call	_M2_PulseSequence_init
	.loc 1 174 26
	movq	-32(%rbp), %rdx
	movl	-20(%rbp), %eax
	movq	%rdx, %rsi
	movl	%eax, %edi
	call	_M2_DebugPMD_init
	.loc 1 175 34
	movq	-32(%rbp), %rdx
	movl	-20(%rbp), %eax
	movq	%rdx, %rsi
	movl	%eax, %edi
	call	_M2_CalculateSpectra_init
	.loc 1 176 38
	call	M2RTS_ExecuteInitialProcedures
	.loc 1 177 21
	movq	-32(%rbp), %rdx
	movl	-20(%rbp), %eax
	movq	%rdx, %rsi
	movl	%eax, %edi
	call	_M2_ilv_init
.LEHE0:
	.loc 1 182 1
	jmp	.L1
.L5:
	.loc 1 179 12
	movq	%rax, %rdi
	call	__cxa_begin_catch
.LEHB1:
	.loc 1 180 38
	call	RTExceptions_DefaultErrorCatch
.LEHE1:
.LEHB2:
	.loc 1 179 12
	call	__cxa_end_catch
.LEHE2:
	.loc 1 182 1
	jmp	.L1
.L6:
	movq	%rax, %rbx
	.loc 1 179 12
	call	__cxa_end_catch
	movq	%rbx, %rax
	movq	%rax, %rdi
.LEHB3:
	call	_Unwind_Resume
.LEHE3:
.L1:
	.loc 1 182 1
	addq	$24, %rsp
	popq	%rbx
	popq	%rbp
	.cfi_def_cfa 7, 8
	ret
	.cfi_endproc
.LFE0:
	.globl	__gxx_personality_v0
	.section	.gcc_except_table,"a",@progbits
	.align 4
.LLSDA0:
	.byte	0xff
	.byte	0x3
	.uleb128 .LLSDATT0-.LLSDATTD0
.LLSDATTD0:
	.byte	0x1
	.uleb128 .LLSDACSE0-.LLSDACSB0
.LLSDACSB0:
	.uleb128 .LEHB0-.LFB0
	.uleb128 .LEHE0-.LEHB0
	.uleb128 .L5-.LFB0
	.uleb128 0x1
	.uleb128 .LEHB1-.LFB0
	.uleb128 .LEHE1-.LEHB1
	.uleb128 .L6-.LFB0
	.uleb128 0
	.uleb128 .LEHB2-.LFB0
	.uleb128 .LEHE2-.LEHB2
	.uleb128 0
	.uleb128 0
	.uleb128 .LEHB3-.LFB0
	.uleb128 .LEHE3-.LEHB3
	.uleb128 0
	.uleb128 0
.LLSDACSE0:
	.byte	0x1
	.byte	0
	.align 4
	.long	0

.LLSDATT0:
	.text
	.size	_ZL4initiPPc, .-_ZL4initiPPc
	.type	_ZL6finishv, @function
_ZL6finishv:
.LFB1:
	.loc 1 185 1
	.cfi_startproc
	.cfi_personality 0x3,__gxx_personality_v0
	.cfi_lsda 0x3,.LLSDA1
	pushq	%rbp
	.cfi_def_cfa_offset 16
	.cfi_offset 6, -16
	movq	%rsp, %rbp
	.cfi_def_cfa_register 6
	pushq	%rbx
	subq	$8, %rsp
	.cfi_offset 3, -24
.LEHB4:
	.loc 1 187 42
	call	M2RTS_ExecuteTerminationProcedures
	.loc 1 188 22
	call	_M2_ilv_finish
	.loc 1 189 35
	call	_M2_CalculateSpectra_finish
	.loc 1 190 27
	call	_M2_DebugPMD_finish
	.loc 1 191 32
	call	_M2_PulseSequence_finish
	.loc 1 192 27
	call	_M2_TimeDate_finish
	.loc 1 193 24
	call	_M2_InOut_finish
	.loc 1 194 28
	call	_M2_RealInOut_finish
	.loc 1 195 33
	call	_M2_DataFilesInout_finish
	.loc 1 196 26
	call	_M2_Fourier_finish
	.loc 1 197 35
	call	_M2_BinaryFilesInOut_finish
	.loc 1 198 34
	call	_M2_SpinOperatorLib_finish
	.loc 1 199 32
	call	_M2_MatrixMathLib_finish
	.loc 1 200 30
	call	_M2_GradientLib_finish
	.loc 1 201 27
	call	_M2_PulseLib_finish
	.loc 1 202 27
	call	_M2_MathLib0_finish
	.loc 1 203 24
	call	_M2_Delay_finish
	.loc 1 204 29
	call	_M2_FileSystem_finish
	.loc 1 205 27
	call	_M2_WholeStr_finish
	.loc 1 206 24
	call	_M2_FpuIO_finish
	.loc 1 207 28
	call	_M2_Selective_finish
	.loc 1 208 26
	call	_M2_Strings_finish
	.loc 1 209 27
	call	_M2_Terminal_finish
	.loc 1 210 23
	call	_M2_SFIO_finish
	.loc 1 211 33
	call	_M2_DynamicStrings_finish
	.loc 1 212 32
	call	_M2_FormatStrings_finish
	.loc 1 213 24
	call	_M2_wrapc_finish
	.loc 1 214 32
	call	_M2_StringConvert_finish
	.loc 1 215 27
	call	_M2_Termbase_finish
	.loc 1 216 28
	call	_M2_WholeConv_finish
	.loc 1 217 23
	call	_M2_dtoa_finish
	.loc 1 218 24
	call	_M2_ldtoa_finish
	.loc 1 219 29
	call	_M2_EXCEPTIONS_finish
	.loc 1 220 28
	call	_M2_CharClass_finish
	.loc 1 221 28
	call	_M2_Assertion_finish
	.loc 1 222 28
	call	_M2_ConvTypes_finish
	.loc 1 223 27
	call	_M2_Keyboard_finish
	.loc 1 224 26
	call	_M2_Display_finish
	.loc 1 225 24
	call	_M2_ASCII_finish
	.loc 1 226 24
	call	_M2_StrIO_finish
	.loc 1 227 30
	call	_M2_M2EXCEPTION_finish
	.loc 1 228 32
	call	_M2_SysExceptions_finish
	.loc 1 229 29
	call	_M2_SysStorage_finish
	.loc 1 230 24
	call	_M2_StdIO_finish
	.loc 1 231 24
	call	_M2_Debug_finish
	.loc 1 232 21
	call	_M2_IO_finish
	.loc 1 233 26
	call	_M2_termios_finish
	.loc 1 234 24
	call	_M2_errno_finish
	.loc 1 235 22
	call	_M2_FIO_finish
	.loc 1 236 25
	call	_M2_StrLib_finish
	.loc 1 237 27
	call	_M2_NumberIO_finish
	.loc 1 238 27
	call	_M2_Indexing_finish
	.loc 1 239 31
	call	_M2_RTExceptions_finish
	.loc 1 240 24
	call	_M2_M2RTS_finish
	.loc 1 241 25
	call	_M2_SYSTEM_finish
	.loc 1 242 26
	call	_M2_Storage_finish
.LEHE4:
	.loc 1 243 12
	movl	$0, %edi
	call	exit
.L10:
	.loc 1 245 12
	movq	%rax, %rdi
	call	__cxa_begin_catch
.LEHB5:
	.loc 1 246 38
	call	RTExceptions_DefaultErrorCatch
.LEHE5:
.LEHB6:
	.loc 1 245 12
	call	__cxa_end_catch
.LEHE6:
	.loc 1 248 1
	jmp	.L12
.L11:
	movq	%rax, %rbx
	.loc 1 245 12
	call	__cxa_end_catch
	movq	%rbx, %rax
	movq	%rax, %rdi
.LEHB7:
	call	_Unwind_Resume
.LEHE7:
.L12:
	.loc 1 248 1
	addq	$8, %rsp
	popq	%rbx
	popq	%rbp
	.cfi_def_cfa 7, 8
	ret
	.cfi_endproc
.LFE1:
	.section	.gcc_except_table
	.align 4
.LLSDA1:
	.byte	0xff
	.byte	0x3
	.uleb128 .LLSDATT1-.LLSDATTD1
.LLSDATTD1:
	.byte	0x1
	.uleb128 .LLSDACSE1-.LLSDACSB1
.LLSDACSB1:
	.uleb128 .LEHB4-.LFB1
	.uleb128 .LEHE4-.LEHB4
	.uleb128 .L10-.LFB1
	.uleb128 0x1
	.uleb128 .LEHB5-.LFB1
	.uleb128 .LEHE5-.LEHB5
	.uleb128 .L11-.LFB1
	.uleb128 0
	.uleb128 .LEHB6-.LFB1
	.uleb128 .LEHE6-.LEHB6
	.uleb128 0
	.uleb128 0
	.uleb128 .LEHB7-.LFB1
	.uleb128 .LEHE7-.LEHB7
	.uleb128 0
	.uleb128 0
.LLSDACSE1:
	.byte	0x1
	.byte	0
	.align 4
	.long	0

.LLSDATT1:
	.text
	.size	_ZL6finishv, .-_ZL6finishv
	.globl	main
	.type	main, @function
main:
.LFB2:
	.loc 1 251 1
	.cfi_startproc
	pushq	%rbp
	.cfi_def_cfa_offset 16
	.cfi_offset 6, -16
	movq	%rsp, %rbp
	.cfi_def_cfa_register 6
	subq	$16, %rsp
	movl	%edi, -4(%rbp)
	movq	%rsi, -16(%rbp)
	.loc 1 252 9
	movq	-16(%rbp), %rdx
	movl	-4(%rbp), %eax
	movq	%rdx, %rsi
	movl	%eax, %edi
	call	_ZL4initiPPc
	.loc 1 253 11
	call	_ZL6finishv
	.loc 1 254 13
	movl	$0, %eax
	.loc 1 255 1
	leave
	.cfi_def_cfa 7, 8
	ret
	.cfi_endproc
.LFE2:
	.size	main, .-main
.Letext0:
	.section	.note.GNU-stack,"",@progbits
